target datalayout = "e-m:e-p270:32:32-p271:32:32-p272:64:64-i64:64-i128:128-f80:128-n8:16:32:64-S128"
target triple = "x86_64-pc-linux-gnu"

%class.svector.5 = type { %class.vector.6 }
%class.vector.6 = type { ptr }
%"struct.substitution_tree::node" = type { i8, %class.svector.5, ptr, %union.anon }
%union.anon = type { ptr }

; Function Attrs: mustprogress uwtable
define hidden noundef zeroext i1 @_ZN17substitution_tree27find_fully_compatible_childEPNS_4nodeERS1_S2_(ptr noundef nonnull align 8 dereferenceable(136) %0, ptr noundef %1, ptr noundef nonnull align 8 dereferenceable(8) %2, ptr noundef nonnull align 8 dereferenceable(8) %3) #4 align 2 {
  %5 = alloca i1, align 1
  %6 = alloca ptr, align 8
  %7 = alloca ptr, align 8
  %8 = alloca ptr, align 8
  %9 = alloca ptr, align 8
  store ptr %0, ptr %6, align 8, !tbaa !3
  store ptr %1, ptr %7, align 8, !tbaa !97
  store ptr %2, ptr %8, align 8, !tbaa !130
  store ptr %3, ptr %9, align 8, !tbaa !130
  %10 = load ptr, ptr %6, align 8
  %11 = load ptr, ptr %8, align 8, !tbaa !130
  store ptr null, ptr %11, align 8, !tbaa !97
  %12 = load ptr, ptr %7, align 8, !tbaa !97
  %13 = getelementptr inbounds nuw %"struct.substitution_tree::node", ptr %12, i32 0, i32 3
  %14 = load ptr, ptr %13, align 8, !tbaa !99
  %15 = load ptr, ptr %9, align 8, !tbaa !130
  store ptr %14, ptr %15, align 8, !tbaa !97
  br label %16

16:                                               ; preds = %26, %4
  %17 = load ptr, ptr %9, align 8, !tbaa !130
  %18 = load ptr, ptr %17, align 8, !tbaa !97
  %19 = icmp ne ptr %18, null
  br i1 %19, label %20, label %35

20:                                               ; preds = %16
  %21 = load ptr, ptr %9, align 8, !tbaa !130
  %22 = load ptr, ptr %21, align 8, !tbaa !97
  %23 = getelementptr inbounds nuw %"struct.substitution_tree::node", ptr %22, i32 0, i32 1
  %24 = call noundef zeroext i1 @_ZN17substitution_tree19is_fully_compatibleERK7svectorISt4pairIP3varP4exprEjE(ptr noundef nonnull align 8 dereferenceable(136) %10, ptr noundef nonnull align 8 dereferenceable(8) %23)
  br i1 %24, label %25, label %26

25:                                               ; preds = %20
  store i1 true, ptr %5, align 1
  br label %36

26:                                               ; preds = %20
  %27 = load ptr, ptr %9, align 8, !tbaa !130
  %28 = load ptr, ptr %27, align 8, !tbaa !97
  %29 = load ptr, ptr %8, align 8, !tbaa !130
  store ptr %28, ptr %29, align 8, !tbaa !97
  %30 = load ptr, ptr %9, align 8, !tbaa !130
  %31 = load ptr, ptr %30, align 8, !tbaa !97
  %32 = getelementptr inbounds nuw %"struct.substitution_tree::node", ptr %31, i32 0, i32 2
  %33 = load ptr, ptr %32, align 8, !tbaa !100
  %34 = load ptr, ptr %9, align 8, !tbaa !130
  store ptr %33, ptr %34, align 8, !tbaa !97
  br label %16, !llvm.loop !133

35:                                               ; preds = %16
  store i1 false, ptr %5, align 1
  br label %36

36:                                               ; preds = %35, %25
  %37 = load i1, ptr %5, align 1
  ret i1 %37
}