; Function Attrs: mustprogress uwtable
define hidden noundef zeroext i1 @_ZN17substitution_tree27find_fully_compatible_childEPNS_4nodeERS1_S2_(ptr noundef nonnull align 8 dereferenceable(136) %0, ptr noundef readonly captures(none) %1, ptr noundef nonnull writeonly align 8 captures(none) dereferenceable(8) initializes((0, 8)) %2, ptr noundef nonnull align 8 captures(none) dereferenceable(8) initializes((0, 8)) %3) local_unnamed_addr #5 align 2 {
  store ptr null, ptr %2, align 8, !tbaa !98
  %5 = getelementptr inbounds nuw i8, ptr %1, i64 24
  %storemerge12 = load ptr, ptr %5, align 8, !tbaa !63
  store ptr %storemerge12, ptr %3, align 8, !tbaa !98
  %.not13.not = icmp eq ptr %storemerge12, null
  br i1 %.not13.not, label %._crit_edge, label %.lr.ph

.lr.ph:                                           ; preds = %4, %8
  %storemerge14 = phi ptr [ %storemerge, %8 ], [ %storemerge12, %4 ]
  %6 = getelementptr inbounds nuw i8, ptr %storemerge14, i64 8
  %7 = tail call noundef zeroext i1 @_ZN17substitution_tree19is_fully_compatibleERK7svectorISt4pairIP3varP4exprEjE(ptr noundef nonnull align 8 dereferenceable(136) %0, ptr noundef nonnull align 8 dereferenceable(8) %6)
  br i1 %7, label %._crit_edge, label %8

8:                                                ; preds = %.lr.ph
  %9 = load ptr, ptr %3, align 8, !tbaa !98
  store ptr %9, ptr %2, align 8, !tbaa !98
  %10 = getelementptr inbounds nuw i8, ptr %9, i64 16
  %storemerge = load ptr, ptr %10, align 8, !tbaa !63
  store ptr %storemerge, ptr %3, align 8, !tbaa !98
  %.not.not = icmp eq ptr %storemerge, null
  br i1 %.not.not, label %._crit_edge, label %.lr.ph, !llvm.loop !107

._crit_edge:                                      ; preds = %.lr.ph, %8, %4
  %.not.lcssa = phi i1 [ false, %4 ], [ %7, %8 ], [ %7, %.lr.ph ]
  ret i1 %.not.lcssa
}